target datalayout = "e-m:e-p270:32:32-p271:32:32-p272:64:64-i64:64-i128:128-f80:128-n8:16:32:64-S128"
target triple = "x86_64-pc-linux-gnu"

; Function Attrs: nounwind uwtable
define internal i32 @set_number(ptr noundef %0, ptr noundef %1, double noundef %2, i32 noundef %3, i64 noundef %4, i32 noundef %5, i32 noundef %6) #0 {
  %8 = alloca i32, align 4
  %9 = alloca ptr, align 8
  %10 = alloca ptr, align 8
  %11 = alloca double, align 8
  %12 = alloca i32, align 4
  %13 = alloca i64, align 8
  %14 = alloca i32, align 4
  %15 = alloca i32, align 4
  %16 = alloca ptr, align 8
  %17 = alloca ptr, align 8
  %18 = alloca i32, align 4
  %19 = alloca i32, align 4
  store ptr %0, ptr %9, align 8, !tbaa !4
  store ptr %1, ptr %10, align 8, !tbaa !19
  store double %2, ptr %11, align 8, !tbaa !53
  store i32 %3, ptr %12, align 4, !tbaa !20
  store i64 %4, ptr %13, align 8, !tbaa !39
  store i32 %5, ptr %14, align 4, !tbaa !20
  store i32 %6, ptr %15, align 4, !tbaa !20
  call void @llvm.lifetime.start.p0(i64 8, ptr %16) #11
  call void @llvm.lifetime.start.p0(i64 8, ptr %17) #11
  call void @llvm.lifetime.start.p0(i64 4, ptr %18) #11
  %20 = load ptr, ptr %9, align 8, !tbaa !4
  %21 = load ptr, ptr %10, align 8, !tbaa !19
  %22 = load i32, ptr %14, align 4, !tbaa !20
  %23 = load i32, ptr %15, align 4, !tbaa !20
  %24 = call i32 @opt_set_init(ptr noundef %20, ptr noundef %21, i32 noundef %22, i32 noundef %23, ptr noundef null, ptr noundef %17, ptr noundef %16)
  store i32 %24, ptr %18, align 4, !tbaa !20
  %25 = load i32, ptr %18, align 4, !tbaa !20
  %26 = icmp slt i32 %25, 0
  br i1 %26, label %27, label %29

27:                                               ; preds = %7
  %28 = load i32, ptr %18, align 4, !tbaa !20
  store i32 %28, ptr %8, align 4
  store i32 1, ptr %19, align 4
  br label %37

29:                                               ; preds = %7
  %30 = load ptr, ptr %9, align 8, !tbaa !4
  %31 = load ptr, ptr %17, align 8, !tbaa !8
  %32 = load ptr, ptr %16, align 8, !tbaa !4
  %33 = load double, ptr %11, align 8, !tbaa !53
  %34 = load i32, ptr %12, align 4, !tbaa !20
  %35 = load i64, ptr %13, align 8, !tbaa !39
  %36 = call i32 @write_number(ptr noundef %30, ptr noundef %31, ptr noundef %32, double noundef %33, i32 noundef %34, i64 noundef %35)
  store i32 %36, ptr %8, align 4
  store i32 1, ptr %19, align 4
  br label %37

37:                                               ; preds = %29, %27
  call void @llvm.lifetime.end.p0(i64 4, ptr %18) #11
  call void @llvm.lifetime.end.p0(i64 8, ptr %17) #11
  call void @llvm.lifetime.end.p0(i64 8, ptr %16) #11
  %38 = load i32, ptr %8, align 4
  ret i32 %38
}

; Function Attrs: nounwind uwtable
define i32 @av_opt_set_double(ptr noundef %0, ptr noundef %1, double noundef %2, i32 noundef %3) #0 {
  %5 = alloca ptr, align 8
  %6 = alloca ptr, align 8
  %7 = alloca double, align 8
  %8 = alloca i32, align 4
  store ptr %0, ptr %5, align 8, !tbaa !4
  store ptr %1, ptr %6, align 8, !tbaa !19
  store double %2, ptr %7, align 8, !tbaa !53
  store i32 %3, ptr %8, align 4, !tbaa !20
  %9 = load ptr, ptr %5, align 8, !tbaa !4
  %10 = load ptr, ptr %6, align 8, !tbaa !19
  %11 = load double, ptr %7, align 8, !tbaa !53
  %12 = load i32, ptr %8, align 4, !tbaa !20
  %13 = call i32 @set_number(ptr noundef %9, ptr noundef %10, double noundef %11, i32 noundef 1, i64 noundef 1, i32 noundef %12, i32 noundef 0)
  ret i32 %13
}