; Function Attrs: nounwind uwtable
define range(i32 -1414549496, 1) i32 @av_opt_set_double(ptr noundef %0, ptr noundef %1, double noundef %2, i32 noundef %3) local_unnamed_addr #2 {
  %5 = alloca ptr, align 8
  %6 = alloca ptr, align 8
  call void @llvm.lifetime.start.p0(i64 8, ptr nonnull %5) #18
  call void @llvm.lifetime.start.p0(i64 8, ptr nonnull %6) #18
  %7 = call fastcc i32 @opt_set_init(ptr noundef %0, ptr noundef %1, i32 noundef %3, i32 noundef 0, ptr noundef null, ptr noundef nonnull %6, ptr noundef %5)
  %8 = icmp slt i32 %7, 0
  br i1 %8, label %set_number.exit, label %9

9:                                                ; preds = %4
  %10 = load ptr, ptr %6, align 8, !tbaa !17
  %11 = load ptr, ptr %5, align 8, !tbaa !19
  %12 = call fastcc i32 @write_number(ptr noundef %0, ptr noundef %10, ptr noundef %11, double noundef %2, i32 noundef 1, i64 noundef 1)
  br label %set_number.exit

set_number.exit:                                  ; preds = %4, %9
  %.0.i = phi i32 [ %12, %9 ], [ %7, %4 ]
  call void @llvm.lifetime.end.p0(i64 8, ptr nonnull %6) #18
  call void @llvm.lifetime.end.p0(i64 8, ptr nonnull %5) #18
  ret i32 %.0.i
}